; Function Attrs: uwtable
define void @_ZThn16_NK12SdfGpuPlugin10filterInfoEi(ptr dead_on_unwind noalias nocapture writable writeonly sret(%class.QString) align 8 %0, ptr nocapture noundef readnone %1, i32 noundef %2) unnamed_addr #13 align 2 {
  tail call void @llvm.experimental.noalias.scope.decl(metadata !26)
  switch i32 %2, label %10 [
    i32 0, label %4
    i32 1, label %6
    i32 2, label %8
  ]

4:                                                ; preds = %3
  %5 = tail call noundef ptr @_ZN7QString16fromAscii_helperEPKci(ptr noundef nonnull @.str.43, i32 noundef 622), !noalias !26
  br label %_ZNK12SdfGpuPlugin10filterInfoEi.exit

6:                                                ; preds = %3
  %7 = tail call noundef ptr @_ZN7QString16fromAscii_helperEPKci(ptr noundef nonnull @.str.44, i32 noundef 504), !noalias !26
  br label %_ZNK12SdfGpuPlugin10filterInfoEi.exit

8:                                                ; preds = %3
  %9 = tail call noundef ptr @_ZN7QString16fromAscii_helperEPKci(ptr noundef nonnull @.str.45, i32 noundef 956), !noalias !26
  br label %_ZNK12SdfGpuPlugin10filterInfoEi.exit

10:                                               ; preds = %3
  %11 = tail call noundef ptr @_ZN7QString16fromAscii_helperEPKci(ptr noundef nonnull @.str.46, i32 noundef 0), !noalias !26
  br label %_ZNK12SdfGpuPlugin10filterInfoEi.exit

_ZNK12SdfGpuPlugin10filterInfoEi.exit:            ; preds = %4, %6, %8, %10
  %.sink.i = phi ptr [ %11, %10 ], [ %9, %8 ], [ %7, %6 ], [ %5, %4 ]
  store ptr %.sink.i, ptr %0, align 8, !alias.scope !26
  ret void
}